target datalayout = "e-m:e-p270:32:32-p271:32:32-p272:64:64-i64:64-i128:128-f80:128-n8:16:32:64-S128"
target triple = "x86_64-unknown-linux-gnu"

%struct.QIOChannelWebsock = type { %struct.QIOChannel, ptr, %struct.Buffer, %struct.Buffer, %struct.Buffer, i64, i64, %union.QIOChannelWebsockMask, i32, ptr, i32, i8 }
%struct.QIOChannel = type { %struct.Object, i32, ptr, ptr, ptr, ptr, ptr, i8 }
%struct.Object = type { ptr, ptr, ptr, i32, ptr }
%struct.Buffer = type { ptr, i64, i64, i64, ptr }
%union.QIOChannelWebsockMask = type { i32 }

@.str = private unnamed_addr constant [20 x i8] c"qio-channel-websock\00", align 1
@.str.1 = private unnamed_addr constant [107 x i8] c"/home/dtcxzyw/WorkSpace/Projects/compilers/llvm-opt-benchmark/bench/qemu/qemu/include/io/channel-websock.h\00", align 1
@__func__.QIO_CHANNEL_WEBSOCK = private unnamed_addr constant [20 x i8] c"QIO_CHANNEL_WEBSOCK\00", align 1

; Function Attrs: nounwind sspstrong uwtable
define internal ptr @QIO_CHANNEL_WEBSOCK(ptr noundef %obj) #0 {
entry:
  %obj.addr = alloca ptr, align 8
  store ptr %obj, ptr %obj.addr, align 8
  %0 = load ptr, ptr %obj.addr, align 8
  %call = call ptr @object_dynamic_cast_assert(ptr noundef %0, ptr noundef @.str, ptr noundef @.str.1, i32 noundef 30, ptr noundef @__func__.QIO_CHANNEL_WEBSOCK)
  ret ptr %call
}

; Function Attrs: nounwind sspstrong uwtable
define internal void @qio_channel_websock_finalize(ptr noundef %obj) #0 {
entry:
  %obj.addr = alloca ptr, align 8
  %ioc = alloca ptr, align 8
  store ptr %obj, ptr %obj.addr, align 8
  %0 = load ptr, ptr %obj.addr, align 8
  %call = call ptr @QIO_CHANNEL_WEBSOCK(ptr noundef %0)
  store ptr %call, ptr %ioc, align 8
  %1 = load ptr, ptr %ioc, align 8
  %encinput = getelementptr inbounds %struct.QIOChannelWebsock, ptr %1, i32 0, i32 2
  call void @buffer_free(ptr noundef %encinput)
  %2 = load ptr, ptr %ioc, align 8
  %encoutput = getelementptr inbounds %struct.QIOChannelWebsock, ptr %2, i32 0, i32 3
  call void @buffer_free(ptr noundef %encoutput)
  %3 = load ptr, ptr %ioc, align 8
  %rawinput = getelementptr inbounds %struct.QIOChannelWebsock, ptr %3, i32 0, i32 4
  call void @buffer_free(ptr noundef %rawinput)
  %4 = load ptr, ptr %ioc, align 8
  %master = getelementptr inbounds %struct.QIOChannelWebsock, ptr %4, i32 0, i32 1
  %5 = load ptr, ptr %master, align 8
  call void @object_unref(ptr noundef %5)
  %6 = load ptr, ptr %ioc, align 8
  %io_tag = getelementptr inbounds %struct.QIOChannelWebsock, ptr %6, i32 0, i32 8
  %7 = load i32, ptr %io_tag, align 4
  %tobool = icmp ne i32 %7, 0
  br i1 %tobool, label %if.then, label %if.end

if.then:                                          ; preds = %entry
  %8 = load ptr, ptr %ioc, align 8
  %io_tag1 = getelementptr inbounds %struct.QIOChannelWebsock, ptr %8, i32 0, i32 8
  %9 = load i32, ptr %io_tag1, align 4
  %call2 = call i32 @g_source_remove(i32 noundef %9)
  br label %if.end

if.end:                                           ; preds = %if.then, %entry
  %10 = load ptr, ptr %ioc, align 8
  %io_err = getelementptr inbounds %struct.QIOChannelWebsock, ptr %10, i32 0, i32 9
  %11 = load ptr, ptr %io_err, align 8
  %tobool3 = icmp ne ptr %11, null
  br i1 %tobool3, label %if.then4, label %if.end6

if.then4:                                         ; preds = %if.end
  %12 = load ptr, ptr %ioc, align 8
  %io_err5 = getelementptr inbounds %struct.QIOChannelWebsock, ptr %12, i32 0, i32 9
  %13 = load ptr, ptr %io_err5, align 8
  call void @error_free(ptr noundef %13)
  br label %if.end6

if.end6:                                          ; preds = %if.then4, %if.end
  ret void
}