; Function Attrs: nounwind sspstrong uwtable
define internal void @qio_channel_websock_finalize(ptr noundef %obj) #0 {
entry:
  %call.i = tail call ptr @object_dynamic_cast_assert(ptr noundef %obj, ptr noundef nonnull @.str, ptr noundef nonnull @.str.1, i32 noundef 30, ptr noundef nonnull @__func__.QIO_CHANNEL_WEBSOCK) #15
  %encinput = getelementptr inbounds nuw i8, ptr %call.i, i64 104
  tail call void @buffer_free(ptr noundef nonnull %encinput) #15
  %encoutput = getelementptr inbounds nuw i8, ptr %call.i, i64 144
  tail call void @buffer_free(ptr noundef nonnull %encoutput) #15
  %rawinput = getelementptr inbounds nuw i8, ptr %call.i, i64 184
  tail call void @buffer_free(ptr noundef nonnull %rawinput) #15
  %master = getelementptr inbounds nuw i8, ptr %call.i, i64 96
  %0 = load ptr, ptr %master, align 8
  tail call void @object_unref(ptr noundef %0) #15
  %io_tag = getelementptr inbounds nuw i8, ptr %call.i, i64 244
  %1 = load i32, ptr %io_tag, align 4
  %tobool.not = icmp eq i32 %1, 0
  br i1 %tobool.not, label %if.end, label %if.then

if.then:                                          ; preds = %entry
  %call2 = tail call i32 @g_source_remove(i32 noundef %1) #15
  br label %if.end

if.end:                                           ; preds = %if.then, %entry
  %io_err = getelementptr inbounds nuw i8, ptr %call.i, i64 248
  %2 = load ptr, ptr %io_err, align 8
  %tobool3.not = icmp eq ptr %2, null
  br i1 %tobool3.not, label %if.end6, label %if.then4

if.then4:                                         ; preds = %if.end
  tail call void @error_free(ptr noundef nonnull %2) #15
  br label %if.end6

if.end6:                                          ; preds = %if.then4, %if.end
  ret void
}